target datalayout = "e-m:e-p270:32:32-p271:32:32-p272:64:64-i64:64-i128:128-f80:128-n8:16:32:64-S128"
target triple = "x86_64-pc-linux-gnu"

%"class.std::basic_string_view" = type { i64, ptr }
%"class.std::vector" = type { %"struct.std::_Vector_base" }
%"struct.std::_Vector_base" = type { %"struct.std::_Vector_base<std::basic_string_view<char>, std::allocator<std::basic_string_view<char>>>::_Vector_impl" }
%"struct.std::_Vector_base<std::basic_string_view<char>, std::allocator<std::basic_string_view<char>>>::_Vector_impl" = type { %"struct.std::_Vector_base<std::basic_string_view<char>, std::allocator<std::basic_string_view<char>>>::_Vector_impl_data" }
%"struct.std::_Vector_base<std::basic_string_view<char>, std::allocator<std::basic_string_view<char>>>::_Vector_impl_data" = type { ptr, ptr, ptr }
%"struct.grpc_core::EvaluateArgs::PerChannelArgs::Address" = type <{ %struct.grpc_resolved_address, [4 x i8], %"class.std::__cxx11::basic_string", i32, [4 x i8] }>
%struct.grpc_resolved_address = type { [128 x i8], i32 }
%"class.std::__cxx11::basic_string" = type { %"struct.std::__cxx11::basic_string<char>::_Alloc_hider", i64, %union.anon }
%"struct.std::__cxx11::basic_string<char>::_Alloc_hider" = type { ptr }
%union.anon = type { i64, [8 x i8] }
%"struct.grpc_core::EvaluateArgs::PerChannelArgs" = type { %"class.std::basic_string_view", %"class.std::basic_string_view", %"class.std::vector", %"class.std::vector", %"class.std::basic_string_view", %"class.std::basic_string_view", %"struct.grpc_core::EvaluateArgs::PerChannelArgs::Address", %"struct.grpc_core::EvaluateArgs::PerChannelArgs::Address" }
%"class.grpc_core::EvaluateArgs" = type { ptr, ptr }

@.str.7 = private unnamed_addr constant [1 x i8] zeroinitializer, align 1

; Function Attrs: mustprogress nounwind uwtable
define linkonce_odr noundef i64 @_ZNSt11char_traitsIcE6lengthEPKc(ptr noundef %0) #5 comdat align 2 {
  %2 = alloca ptr, align 8
  store ptr %0, ptr %2, align 8, !tbaa !15
  %3 = load ptr, ptr %2, align 8, !tbaa !15
  %4 = call i64 @strlen(ptr noundef %3) #3
  ret i64 %4
}

; Function Attrs: mustprogress nounwind uwtable
define linkonce_odr void @_ZNSt17basic_string_viewIcSt11char_traitsIcEEC2EPKc(ptr noundef nonnull align 8 dereferenceable(16) %0, ptr noundef nonnull %1) unnamed_addr #5 comdat align 2 {
  %3 = alloca ptr, align 8
  %4 = alloca ptr, align 8
  store ptr %0, ptr %3, align 8, !tbaa !17
  store ptr %1, ptr %4, align 8, !tbaa !15
  %5 = load ptr, ptr %3, align 8
  %6 = getelementptr inbounds nuw %"class.std::basic_string_view", ptr %5, i32 0, i32 0
  %7 = load ptr, ptr %4, align 8, !tbaa !15
  %8 = call noundef i64 @_ZNSt11char_traitsIcE6lengthEPKc(ptr noundef %7)
  store i64 %8, ptr %6, align 8, !tbaa !19
  %9 = getelementptr inbounds nuw %"class.std::basic_string_view", ptr %5, i32 0, i32 1
  %10 = load ptr, ptr %4, align 8, !tbaa !15
  store ptr %10, ptr %9, align 8, !tbaa !21
  ret void
}

; Function Attrs: mustprogress nounwind uwtable
define { i64, ptr } @_ZNK9grpc_core12EvaluateArgs24GetTransportSecurityTypeEv(ptr noundef nonnull align 8 dereferenceable(16) %0) #5 align 2 {
  %2 = alloca %"class.std::basic_string_view", align 8
  %3 = alloca ptr, align 8
  store ptr %0, ptr %3, align 8, !tbaa !42
  %4 = load ptr, ptr %3, align 8
  %5 = getelementptr inbounds nuw %"class.grpc_core::EvaluateArgs", ptr %4, i32 0, i32 1
  %6 = load ptr, ptr %5, align 8, !tbaa !65
  %7 = icmp eq ptr %6, null
  br i1 %7, label %8, label %9

8:                                                ; preds = %1
  call void @_ZNSt17basic_string_viewIcSt11char_traitsIcEEC2EPKc(ptr noundef nonnull align 8 dereferenceable(16) %2, ptr noundef @.str.7) #3
  br label %13

9:                                                ; preds = %1
  %10 = getelementptr inbounds nuw %"class.grpc_core::EvaluateArgs", ptr %4, i32 0, i32 1
  %11 = load ptr, ptr %10, align 8, !tbaa !65
  %12 = getelementptr inbounds nuw %"struct.grpc_core::EvaluateArgs::PerChannelArgs", ptr %11, i32 0, i32 0
  call void @llvm.memcpy.p0.p0.i64(ptr align 8 %2, ptr align 8 %12, i64 16, i1 false), !tbaa.struct !12
  br label %13

13:                                               ; preds = %9, %8
  %14 = load { i64, ptr }, ptr %2, align 8
  ret { i64, ptr } %14
}